target datalayout = "e-m:e-p270:32:32-p271:32:32-p272:64:64-i64:64-i128:128-f80:128-n8:16:32:64-S128"
target triple = "x86_64-pc-linux-gnu"

%struct.CRYPTO_REF_COUNT = type { i32 }
%struct.quic_token_st = type { %struct.CRYPTO_REF_COUNT, ptr, i64, ptr, i64 }

@.str = private unnamed_addr constant [32 x i8] c"../openssl/ssl/quic/quic_impl.c\00", align 1

; Function Attrs: inlinehint nounwind uwtable
define internal void @CRYPTO_FREE_REF(ptr noundef %0) #3 {
  %2 = alloca ptr, align 8
  store ptr %0, ptr %2, align 8, !tbaa !167
  ret void
}

; Function Attrs: inlinehint nounwind uwtable
define internal i32 @CRYPTO_DOWN_REF(ptr noundef %0, ptr noundef %1) #3 {
  %3 = alloca ptr, align 8
  %4 = alloca ptr, align 8
  %5 = alloca i32, align 4
  %6 = alloca i32, align 4
  store ptr %0, ptr %3, align 8, !tbaa !167
  store ptr %1, ptr %4, align 8, !tbaa !180
  %7 = load ptr, ptr %3, align 8, !tbaa !167
  %8 = getelementptr inbounds nuw %struct.CRYPTO_REF_COUNT, ptr %7, i32 0, i32 0
  store i32 1, ptr %5, align 4, !tbaa !122
  %9 = load i32, ptr %5, align 4
  %10 = atomicrmw sub ptr %8, i32 %9 release, align 4
  store i32 %10, ptr %6, align 4
  %11 = load i32, ptr %6, align 4, !tbaa !122
  %12 = sub nsw i32 %11, 1
  %13 = load ptr, ptr %4, align 8, !tbaa !180
  store i32 %12, ptr %13, align 4, !tbaa !122
  %14 = load ptr, ptr %4, align 8, !tbaa !180
  %15 = load i32, ptr %14, align 4, !tbaa !122
  %16 = icmp eq i32 %15, 0
  br i1 %16, label %17, label %18

17:                                               ; preds = %2
  fence acquire
  br label %18

18:                                               ; preds = %17, %2
  ret i32 1
}

; Function Attrs: nounwind uwtable
define void @ossl_quic_free_peer_token(ptr noundef %0) #0 {
  %2 = alloca ptr, align 8
  %3 = alloca i32, align 4
  %4 = alloca i32, align 4
  store ptr %0, ptr %2, align 8, !tbaa !278
  call void @llvm.lifetime.start.p0(i64 4, ptr %3) #10
  store i32 0, ptr %3, align 4, !tbaa !122
  %5 = load ptr, ptr %2, align 8, !tbaa !278
  %6 = getelementptr inbounds nuw %struct.quic_token_st, ptr %5, i32 0, i32 0
  %7 = call i32 @CRYPTO_DOWN_REF(ptr noundef %6, ptr noundef %3)
  %8 = icmp ne i32 %7, 0
  br i1 %8, label %10, label %9

9:                                                ; preds = %1
  store i32 1, ptr %4, align 4
  br label %18

10:                                               ; preds = %1
  %11 = load i32, ptr %3, align 4, !tbaa !122
  %12 = icmp sgt i32 %11, 0
  br i1 %12, label %13, label %14

13:                                               ; preds = %10
  store i32 1, ptr %4, align 4
  br label %18

14:                                               ; preds = %10
  %15 = load ptr, ptr %2, align 8, !tbaa !278
  %16 = getelementptr inbounds nuw %struct.quic_token_st, ptr %15, i32 0, i32 0
  call void @CRYPTO_FREE_REF(ptr noundef %16)
  %17 = load ptr, ptr %2, align 8, !tbaa !278
  call void @CRYPTO_free(ptr noundef %17, ptr noundef @.str, i32 noundef 4863)
  store i32 0, ptr %4, align 4
  br label %18

18:                                               ; preds = %14, %13, %9
  call void @llvm.lifetime.end.p0(i64 4, ptr %3) #10
  %19 = load i32, ptr %4, align 4
  switch i32 %19, label %21 [
    i32 0, label %20
    i32 1, label %20
  ]

20:                                               ; preds = %18, %18
  ret void

21:                                               ; preds = %18
  unreachable
}

; Function Attrs: nounwind uwtable
define internal void @free_this_token(ptr noundef %0) #0 {
  %2 = alloca ptr, align 8
  store ptr %0, ptr %2, align 8, !tbaa !278
  %3 = load ptr, ptr %2, align 8, !tbaa !278
  call void @ossl_quic_free_peer_token(ptr noundef %3)
  ret void
}