; Function Attrs: nounwind uwtable
define internal void @free_this_token(ptr noundef %0) #0 {
  %2 = atomicrmw sub ptr %0, i32 1 release, align 4
  %3 = icmp eq i32 %2, 1
  br i1 %3, label %CRYPTO_DOWN_REF.exit.thread.i, label %CRYPTO_DOWN_REF.exit.i

CRYPTO_DOWN_REF.exit.thread.i:                    ; preds = %1
  fence acquire
  br label %5

CRYPTO_DOWN_REF.exit.i:                           ; preds = %1
  %4 = icmp sgt i32 %2, 1
  br i1 %4, label %ossl_quic_free_peer_token.exit, label %5

5:                                                ; preds = %CRYPTO_DOWN_REF.exit.i, %CRYPTO_DOWN_REF.exit.thread.i
  tail call void @CRYPTO_free(ptr noundef %0, ptr noundef nonnull @.str, i32 noundef 4863) #12
  br label %ossl_quic_free_peer_token.exit

ossl_quic_free_peer_token.exit:                   ; preds = %CRYPTO_DOWN_REF.exit.i, %5
  ret void
}